; Function Attrs: mustprogress uwtable
define i32 @_ZNK17RichParameterList10getColor4bERK7QString(ptr noundef nonnull align 8 dereferenceable(24) %0, ptr noundef nonnull align 8 dereferenceable(8) %1) local_unnamed_addr #9 align 2 {
  %3 = alloca %class.QColor, align 4
  %4 = tail call noundef nonnull align 8 dereferenceable(56) ptr @_ZNK17RichParameterList18getParameterByNameERK7QString(ptr noundef nonnull align 8 dereferenceable(24) %0, ptr noundef nonnull align 8 dereferenceable(8) %1)
  %5 = tail call noundef nonnull align 8 dereferenceable(8) ptr @_ZNK13RichParameter5valueEv(ptr noundef nonnull align 8 dereferenceable(56) %4)
  %6 = load ptr, ptr %5, align 8
  %7 = getelementptr inbounds i8, ptr %6, i64 72
  %8 = load ptr, ptr %7, align 8
  call void %8(ptr dead_on_unwind nonnull writable sret(%class.QColor) align 4 %3, ptr noundef nonnull align 8 dereferenceable(8) %5)
  %9 = call noundef i32 @_ZNK6QColor3redEv(ptr noundef nonnull align 4 dereferenceable(14) %3) #22
  %10 = call noundef i32 @_ZNK6QColor5greenEv(ptr noundef nonnull align 4 dereferenceable(14) %3) #22
  %11 = call noundef i32 @_ZNK6QColor4blueEv(ptr noundef nonnull align 4 dereferenceable(14) %3) #22
  %12 = call noundef i32 @_ZNK6QColor5alphaEv(ptr noundef nonnull align 4 dereferenceable(14) %3) #22
  %.sroa.4.0.insert.ext.i = shl i32 %12, 24
  %.sroa.3.0.insert.ext.i = shl i32 %11, 16
  %.sroa.3.0.insert.shift.i = and i32 %.sroa.3.0.insert.ext.i, 16711680
  %.sroa.3.0.insert.insert.i = or disjoint i32 %.sroa.4.0.insert.ext.i, %.sroa.3.0.insert.shift.i
  %.sroa.2.0.insert.ext.i = shl i32 %10, 8
  %.sroa.2.0.insert.shift.i = and i32 %.sroa.2.0.insert.ext.i, 65280
  %.sroa.2.0.insert.insert.i = or disjoint i32 %.sroa.3.0.insert.insert.i, %.sroa.2.0.insert.shift.i
  %.sroa.0.0.insert.ext.i = and i32 %9, 255
  %.sroa.0.0.insert.insert.i = or disjoint i32 %.sroa.2.0.insert.insert.i, %.sroa.0.0.insert.ext.i
  ret i32 %.sroa.0.0.insert.insert.i
}